target datalayout = "e-m:e-p270:32:32-p271:32:32-p272:64:64-i64:64-i128:128-f80:128-n8:16:32:64-S128"
target triple = "x86_64-unknown-linux-gnu"

%struct.redisServer = type { i32, i64, ptr, ptr, ptr, i32, i32, i32, i32, i32, ptr, ptr, ptr, ptr, ptr, ptr, i32, i32, i64, i32, i32, i32, i32, ptr, i32, i32, [41 x i8], i32, i64, i32, i32, i32, ptr, ptr, i32, i32, i64, ptr, ptr, ptr, ptr, [2 x i32], i32, i32, i32, i32, i32, [16 x ptr], i32, ptr, ptr, i32, [8 x %struct.connListener], i32, %struct.connListener, ptr, ptr, ptr, ptr, ptr, ptr, ptr, ptr, ptr, ptr, i32, ptr, i32, ptr, [3 x %struct.pause_event], [256 x i8], ptr, i64, i32, i32, i32, i32, i64, i32, i32, i32, i32, i32, i64, i64, i64, i64, i64, i64, i64, i64, i64, double, i64, i64, i64, i64, i64, i64, i64, i64, i64, i64, i64, i64, i64, i64, i64, i64, i64, i64, i64, i64, double, i64, i64, i64, i64, i64, ptr, i64, i64, i64, %struct.malloc_stats, i64, i64, i64, i64, i64, i64, i64, i64, i64, i64, i64, i64, double, [4 x i64], i64, i64, i64, i64, i64, i64, i64, i64, i64, i64, [7 x %struct.anon], i64, i64, i64, i64, i64, i64, [4 x %struct.durationStats], i32, i32, i32, i32, i32, i32, i32, i32, i32, i32, i64, i32, i32, i32, i32, i64, i64, i32, i32, i32, i32, i32, ptr, [3 x %struct.clientBufferLimitsConfig], i32, i32, ptr, i32, i32, i32, i32, ptr, ptr, i32, i32, i64, i64, i64, i64, i64, i32, i32, ptr, i32, i32, i64, i64, i64, i64, i64, i32, i32, i64, i32, i32, i32, i32, i32, i32, i32, i32, ptr, i32, i64, i64, i64, i64, ptr, i32, ptr, i32, i32, i32, i64, i64, i64, i64, i32, i32, i32, i32, i32, i32, ptr, i32, i32, ptr, i32, i32, i32, [2 x i32], i32, %struct.redisOpArray, i32, ptr, i32, ptr, i32, i32, i32, i32, i32, i32, i32, [41 x i8], [41 x i8], i64, i64, i64, i64, i32, i32, ptr, i64, i64, i64, i32, i32, i32, i32, i32, i32, i32, i64, ptr, ptr, ptr, ptr, i32, i32, ptr, ptr, i32, i32, i64, i64, i64, ptr, i32, ptr, i64, i32, i32, i32, i64, i32, i32, i32, i32, ptr, i32, i32, [41 x i8], i64, i32, ptr, i32, i32, i64, i64, i32, i32, i32, i32, i32, i64, [3 x i32], i32, i32, i32, [9 x i32], ptr, ptr, i32, i64, ptr, ptr, i32, i32, i32, i32, i64, i64, i64, i64, i64, i64, i64, i64, i64, i64, i32, i32, i64, i64, i32, i64, i64, i64, i64, i64, ptr, ptr, i32, ptr, i32, i32, i32, i64, i64, ptr, ptr, i32, i32, i32, i32, i32, ptr, ptr, ptr, i32, i32, i32, i32, i32, i32, i32, i64, i32, i64, i32, i32, i32, i32, i32, i32, i32, i64, ptr, ptr, i64, ptr, i32, %struct.aclInfo, i32, i64, i32, i32, i32, %struct.redisTLSContextConfig, ptr, ptr, ptr, ptr, ptr, i64, i32, ptr, i32, i32, i32, i64, i32, ptr }
%struct.connListener = type { [16 x i32], i32, ptr, i32, i32, ptr, ptr }
%struct.pause_event = type { i32, i64 }
%struct.malloc_stats = type { i64, i64, i64, i64, i64 }
%struct.anon = type { i64, i64, [16 x i64], i32 }
%struct.durationStats = type { i64, i64, i64 }
%struct.clientBufferLimitsConfig = type { i64, i64, i64 }
%struct.redisOpArray = type { ptr, i32, i32 }
%struct.aclInfo = type { i64, i64, i64, i64 }
%struct.redisTLSContextConfig = type { ptr, ptr, ptr, ptr, ptr, ptr, ptr, ptr, ptr, ptr, ptr, ptr, i32, i32, i32, i32 }
%struct.connection = type { ptr, i32, i32, i32, i16, i16, i16, ptr, ptr, ptr, ptr }
%struct.ConnectionType = type { ptr, ptr, ptr, ptr, ptr, ptr, ptr, ptr, ptr, ptr, ptr, ptr, ptr, ptr, ptr, ptr, ptr, ptr, ptr, ptr, ptr, ptr, ptr, ptr, ptr, ptr, ptr, ptr }

@server = external global %struct.redisServer, align 8
@.str.192 = private unnamed_addr constant [43 x i8] c"Reconnecting to MASTER %s:%d after failure\00", align 1

; Function Attrs: nounwind uwtable
define internal void @connClose(ptr noundef %conn) #0 {
entry:
  %conn.addr = alloca ptr, align 8
  store ptr %conn, ptr %conn.addr, align 8
  %0 = load ptr, ptr %conn.addr, align 8
  %type = getelementptr inbounds %struct.connection, ptr %0, i32 0, i32 0
  %1 = load ptr, ptr %type, align 8
  %close = getelementptr inbounds %struct.ConnectionType, ptr %1, i32 0, i32 12
  %2 = load ptr, ptr %close, align 8
  %3 = load ptr, ptr %conn.addr, align 8
  call void %2(ptr noundef %3)
  ret void
}

; Function Attrs: nounwind uwtable
define dso_local void @undoConnectWithMaster() #0 {
entry:
  %0 = load ptr, ptr getelementptr inbounds (%struct.redisServer, ptr @server, i32 0, i32 293), align 8
  call void @connClose(ptr noundef %0)
  store ptr null, ptr getelementptr inbounds (%struct.redisServer, ptr @server, i32 0, i32 293), align 8
  ret void
}

; Function Attrs: nounwind uwtable
define dso_local i32 @slaveIsInHandshakeState() #0 {
entry:
  %0 = load i32, ptr getelementptr inbounds (%struct.redisServer, ptr @server, i32 0, i32 289), align 4
  %cmp = icmp sge i32 %0, 3
  br i1 %cmp, label %land.rhs, label %land.end

land.rhs:                                         ; preds = %entry
  %1 = load i32, ptr getelementptr inbounds (%struct.redisServer, ptr @server, i32 0, i32 289), align 4
  %cmp1 = icmp sle i32 %1, 10
  br label %land.end

land.end:                                         ; preds = %land.rhs, %entry
  %2 = phi i1 [ false, %entry ], [ %cmp1, %land.rhs ]
  %land.ext = zext i1 %2 to i32
  ret i32 %land.ext
}

; Function Attrs: nounwind uwtable
define dso_local i32 @cancelReplicationHandshake(i32 noundef %reconnect) #0 {
entry:
  %retval = alloca i32, align 4
  %reconnect.addr = alloca i32, align 4
  store i32 %reconnect, ptr %reconnect.addr, align 4
  %0 = load i32, ptr getelementptr inbounds (%struct.redisServer, ptr @server, i32 0, i32 289), align 4
  %cmp = icmp eq i32 %0, 11
  br i1 %cmp, label %if.then, label %if.else

if.then:                                          ; preds = %entry
  call void @replicationAbortSyncTransfer()
  store i32 1, ptr getelementptr inbounds (%struct.redisServer, ptr @server, i32 0, i32 289), align 4
  br label %if.end4

if.else:                                          ; preds = %entry
  %1 = load i32, ptr getelementptr inbounds (%struct.redisServer, ptr @server, i32 0, i32 289), align 4
  %cmp1 = icmp eq i32 %1, 2
  br i1 %cmp1, label %if.then2, label %lor.lhs.false

lor.lhs.false:                                    ; preds = %if.else
  %call = call i32 @slaveIsInHandshakeState()
  %tobool = icmp ne i32 %call, 0
  br i1 %tobool, label %if.then2, label %if.else3

if.then2:                                         ; preds = %lor.lhs.false, %if.else
  call void @undoConnectWithMaster()
  store i32 1, ptr getelementptr inbounds (%struct.redisServer, ptr @server, i32 0, i32 289), align 4
  br label %if.end

if.else3:                                         ; preds = %lor.lhs.false
  store i32 0, ptr %retval, align 4
  br label %return

if.end:                                           ; preds = %if.then2
  br label %if.end4

if.end4:                                          ; preds = %if.end, %if.then
  %2 = load i32, ptr %reconnect.addr, align 4
  %tobool5 = icmp ne i32 %2, 0
  br i1 %tobool5, label %if.end7, label %if.then6

if.then6:                                         ; preds = %if.end4
  store i32 1, ptr %retval, align 4
  br label %return

if.end7:                                          ; preds = %if.end4
  br label %do.body

do.body:                                          ; preds = %if.end7
  %3 = load i32, ptr getelementptr inbounds (%struct.redisServer, ptr @server, i32 0, i32 156), align 8
  %cmp8 = icmp slt i32 2, %3
  br i1 %cmp8, label %if.then9, label %if.end10

if.then9:                                         ; preds = %do.body
  br label %do.end

if.end10:                                         ; preds = %do.body
  %4 = load ptr, ptr getelementptr inbounds (%struct.redisServer, ptr @server, i32 0, i32 283), align 8
  %5 = load i32, ptr getelementptr inbounds (%struct.redisServer, ptr @server, i32 0, i32 284), align 8
  call void (i32, ptr, ...) @_serverLog(i32 noundef 2, ptr noundef @.str.192, ptr noundef %4, i32 noundef %5)
  br label %do.end

do.end:                                           ; preds = %if.end10, %if.then9
  %call11 = call i32 @connectWithMaster()
  store i32 1, ptr %retval, align 4
  br label %return

return:                                           ; preds = %do.end, %if.then6, %if.else3
  %6 = load i32, ptr %retval, align 4
  ret i32 %6
}