; Function Attrs: nounwind uwtable
define dso_local noundef i32 @cancelReplicationHandshake(i32 noundef %reconnect) local_unnamed_addr #0 {
entry:
  %0 = load i32, ptr getelementptr inbounds (%struct.redisServer, ptr @server, i64 0, i32 289), align 4
  switch i32 %0, label %lor.lhs.false [
    i32 11, label %if.then
    i32 2, label %if.then2
  ]

if.then:                                          ; preds = %entry
  tail call void @replicationAbortSyncTransfer()
  br label %if.end4

lor.lhs.false:                                    ; preds = %entry
  %1 = add i32 %0, -11
  %2 = icmp ult i32 %1, -8
  br i1 %2, label %return, label %if.then2

if.then2:                                         ; preds = %entry, %lor.lhs.false
  %3 = load ptr, ptr getelementptr inbounds (%struct.redisServer, ptr @server, i64 0, i32 293), align 8
  %4 = load ptr, ptr %3, align 8
  %close.i.i = getelementptr inbounds i8, ptr %4, i64 96
  %5 = load ptr, ptr %close.i.i, align 8
  tail call void %5(ptr noundef nonnull %3) #21
  store ptr null, ptr getelementptr inbounds (%struct.redisServer, ptr @server, i64 0, i32 293), align 8
  br label %if.end4

if.end4:                                          ; preds = %if.then2, %if.then
  store i32 1, ptr getelementptr inbounds (%struct.redisServer, ptr @server, i64 0, i32 289), align 4
  %tobool5.not = icmp eq i32 %reconnect, 0
  br i1 %tobool5.not, label %return, label %do.body

do.body:                                          ; preds = %if.end4
  %6 = load i32, ptr getelementptr inbounds (%struct.redisServer, ptr @server, i64 0, i32 156), align 8
  %cmp8 = icmp sgt i32 %6, 2
  br i1 %cmp8, label %do.end, label %if.end10

if.end10:                                         ; preds = %do.body
  %7 = load ptr, ptr getelementptr inbounds (%struct.redisServer, ptr @server, i64 0, i32 283), align 8
  %8 = load i32, ptr getelementptr inbounds (%struct.redisServer, ptr @server, i64 0, i32 284), align 8
  tail call void (i32, ptr, ...) @_serverLog(i32 noundef 2, ptr noundef nonnull @.str.192, ptr noundef %7, i32 noundef %8) #21
  br label %do.end

do.end:                                           ; preds = %do.body, %if.end10
  %call11 = tail call i32 @connectWithMaster(), !range !18
  br label %return

return:                                           ; preds = %if.end4, %lor.lhs.false, %do.end
  %retval.0 = phi i32 [ 1, %do.end ], [ 0, %lor.lhs.false ], [ 1, %if.end4 ]
  ret i32 %retval.0
}